target datalayout = "e-m:e-p270:32:32-p271:32:32-p272:64:64-i64:64-i128:128-f80:128-n8:16:32:64-S128"
target triple = "x86_64-unknown-linux-gnu"

%class.btVector3 = type { [4 x float] }
%class.btPolyhedralConvexShape = type { %class.btConvexInternalShape, ptr }
%class.btConvexInternalShape = type { %class.btConvexShape, %class.btVector3, %class.btVector3, float, float }
%class.btConvexShape = type { %class.btCollisionShape }
%class.btCollisionShape = type { ptr, i32, ptr, i32, i32 }
%class.btPolyhedralConvexAabbCachingShape = type <{ %class.btPolyhedralConvexShape, %class.btVector3, %class.btVector3, i8, [7 x i8] }>

; Function Attrs: noreturn nounwind uwtable
define linkonce_odr hidden void @__clang_call_terminate(ptr noundef %0) #4 comdat {
  %2 = call ptr @__cxa_begin_catch(ptr %0) #8
  call void @_ZSt9terminatev() #12
  unreachable
}

; Function Attrs: mustprogress nounwind uwtable
define linkonce_odr dso_local void @_ZN21btConvexInternalShapeD2Ev(ptr noundef nonnull align 8 dereferenceable(72) %this) unnamed_addr #1 comdat align 2 {
entry:
  %this.addr = alloca ptr, align 8
  store ptr %this, ptr %this.addr, align 8
  %this1 = load ptr, ptr %this.addr, align 8
  call void @_ZN13btConvexShapeD2Ev(ptr noundef nonnull align 8 dereferenceable(32) %this1) #8
  ret void
}

; Function Attrs: mustprogress nounwind uwtable
define dso_local void @_ZN23btPolyhedralConvexShapeD2Ev(ptr noundef nonnull align 8 dereferenceable(80) %this) unnamed_addr #1 align 2 personality ptr @__gxx_personality_v0 {
entry:
  %this.addr = alloca ptr, align 8
  store ptr %this, ptr %this.addr, align 8
  %this1 = load ptr, ptr %this.addr, align 8
  store ptr getelementptr inbounds ({ [34 x ptr] }, ptr @_ZTV23btPolyhedralConvexShape, i32 0, i32 0, i32 2), ptr %this1, align 8
  %m_polyhedron = getelementptr inbounds %class.btPolyhedralConvexShape, ptr %this1, i32 0, i32 1
  %0 = load ptr, ptr %m_polyhedron, align 8
  %tobool = icmp ne ptr %0, null
  br i1 %tobool, label %if.then, label %if.end

if.then:                                          ; preds = %entry
  %m_polyhedron2 = getelementptr inbounds %class.btPolyhedralConvexShape, ptr %this1, i32 0, i32 1
  %1 = load ptr, ptr %m_polyhedron2, align 8
  %vtable = load ptr, ptr %1, align 8
  %vfn = getelementptr inbounds ptr, ptr %vtable, i64 0
  %2 = load ptr, ptr %vfn, align 8
  call void %2(ptr noundef nonnull align 8 dereferenceable(172) %1) #8
  %m_polyhedron3 = getelementptr inbounds %class.btPolyhedralConvexShape, ptr %this1, i32 0, i32 1
  %3 = load ptr, ptr %m_polyhedron3, align 8
  invoke void @_Z21btAlignedFreeInternalPv(ptr noundef %3)
          to label %invoke.cont unwind label %terminate.lpad

invoke.cont:                                      ; preds = %if.then
  br label %if.end

if.end:                                           ; preds = %invoke.cont, %entry
  call void @_ZN21btConvexInternalShapeD2Ev(ptr noundef nonnull align 8 dereferenceable(72) %this1) #8
  ret void

terminate.lpad:                                   ; preds = %if.then
  %4 = landingpad { ptr, i32 }
          catch ptr null
  %5 = extractvalue { ptr, i32 } %4, 0
  call void @__clang_call_terminate(ptr %5) #12
  unreachable
}

; Function Attrs: mustprogress nounwind uwtable
define linkonce_odr dso_local void @_ZN9btVector3C2ERKfS1_S1_(ptr noundef nonnull align 4 dereferenceable(16) %this, ptr noundef nonnull align 4 dereferenceable(4) %_x, ptr noundef nonnull align 4 dereferenceable(4) %_y, ptr noundef nonnull align 4 dereferenceable(4) %_z) unnamed_addr #1 comdat align 2 {
entry:
  %this.addr = alloca ptr, align 8
  %_x.addr = alloca ptr, align 8
  %_y.addr = alloca ptr, align 8
  %_z.addr = alloca ptr, align 8
  store ptr %this, ptr %this.addr, align 8
  store ptr %_x, ptr %_x.addr, align 8
  store ptr %_y, ptr %_y.addr, align 8
  store ptr %_z, ptr %_z.addr, align 8
  %this1 = load ptr, ptr %this.addr, align 8
  %0 = load ptr, ptr %_x.addr, align 8
  %1 = load float, ptr %0, align 4
  %m_floats = getelementptr inbounds %class.btVector3, ptr %this1, i32 0, i32 0
  %arrayidx = getelementptr inbounds [4 x float], ptr %m_floats, i64 0, i64 0
  store float %1, ptr %arrayidx, align 4
  %2 = load ptr, ptr %_y.addr, align 8
  %3 = load float, ptr %2, align 4
  %m_floats2 = getelementptr inbounds %class.btVector3, ptr %this1, i32 0, i32 0
  %arrayidx3 = getelementptr inbounds [4 x float], ptr %m_floats2, i64 0, i64 1
  store float %3, ptr %arrayidx3, align 4
  %4 = load ptr, ptr %_z.addr, align 8
  %5 = load float, ptr %4, align 4
  %m_floats4 = getelementptr inbounds %class.btVector3, ptr %this1, i32 0, i32 0
  %arrayidx5 = getelementptr inbounds [4 x float], ptr %m_floats4, i64 0, i64 2
  store float %5, ptr %arrayidx5, align 4
  %m_floats6 = getelementptr inbounds %class.btVector3, ptr %this1, i32 0, i32 0
  %arrayidx7 = getelementptr inbounds [4 x float], ptr %m_floats6, i64 0, i64 3
  store float 0.000000e+00, ptr %arrayidx7, align 4
  ret void
}

; Function Attrs: mustprogress uwtable
define dso_local void @_ZN23btPolyhedralConvexShapeC2Ev(ptr noundef nonnull align 8 dereferenceable(80) %this) unnamed_addr #2 align 2 {
entry:
  %this.addr = alloca ptr, align 8
  store ptr %this, ptr %this.addr, align 8
  %this1 = load ptr, ptr %this.addr, align 8
  call void @_ZN21btConvexInternalShapeC2Ev(ptr noundef nonnull align 8 dereferenceable(72) %this1)
  store ptr getelementptr inbounds ({ [34 x ptr] }, ptr @_ZTV23btPolyhedralConvexShape, i32 0, i32 0, i32 2), ptr %this1, align 8
  %m_polyhedron = getelementptr inbounds %class.btPolyhedralConvexShape, ptr %this1, i32 0, i32 1
  store ptr null, ptr %m_polyhedron, align 8
  ret void
}

; Function Attrs: mustprogress uwtable
define dso_local void @_ZN34btPolyhedralConvexAabbCachingShapeC2Ev(ptr noundef nonnull align 8 dereferenceable(113) %this) unnamed_addr #2 align 2 personality ptr @__gxx_personality_v0 {
entry:
  %this.addr = alloca ptr, align 8
  %ref.tmp = alloca float, align 4
  %ref.tmp2 = alloca float, align 4
  %ref.tmp3 = alloca float, align 4
  %exn.slot = alloca ptr, align 8
  %ehselector.slot = alloca i32, align 4
  %ref.tmp4 = alloca float, align 4
  %ref.tmp5 = alloca float, align 4
  %ref.tmp6 = alloca float, align 4
  store ptr %this, ptr %this.addr, align 8
  %this1 = load ptr, ptr %this.addr, align 8
  call void @_ZN23btPolyhedralConvexShapeC2Ev(ptr noundef nonnull align 8 dereferenceable(80) %this1)
  store ptr getelementptr inbounds ({ [34 x ptr] }, ptr @_ZTV34btPolyhedralConvexAabbCachingShape, i32 0, i32 0, i32 2), ptr %this1, align 8
  %m_localAabbMin = getelementptr inbounds %class.btPolyhedralConvexAabbCachingShape, ptr %this1, i32 0, i32 1
  store float 1.000000e+00, ptr %ref.tmp, align 4
  store float 1.000000e+00, ptr %ref.tmp2, align 4
  store float 1.000000e+00, ptr %ref.tmp3, align 4
  invoke void @_ZN9btVector3C2ERKfS1_S1_(ptr noundef nonnull align 4 dereferenceable(16) %m_localAabbMin, ptr noundef nonnull align 4 dereferenceable(4) %ref.tmp, ptr noundef nonnull align 4 dereferenceable(4) %ref.tmp2, ptr noundef nonnull align 4 dereferenceable(4) %ref.tmp3)
          to label %invoke.cont unwind label %lpad

invoke.cont:                                      ; preds = %entry
  %m_localAabbMax = getelementptr inbounds %class.btPolyhedralConvexAabbCachingShape, ptr %this1, i32 0, i32 2
  store float -1.000000e+00, ptr %ref.tmp4, align 4
  store float -1.000000e+00, ptr %ref.tmp5, align 4
  store float -1.000000e+00, ptr %ref.tmp6, align 4
  invoke void @_ZN9btVector3C2ERKfS1_S1_(ptr noundef nonnull align 4 dereferenceable(16) %m_localAabbMax, ptr noundef nonnull align 4 dereferenceable(4) %ref.tmp4, ptr noundef nonnull align 4 dereferenceable(4) %ref.tmp5, ptr noundef nonnull align 4 dereferenceable(4) %ref.tmp6)
          to label %invoke.cont7 unwind label %lpad

invoke.cont7:                                     ; preds = %invoke.cont
  %m_isLocalAabbValid = getelementptr inbounds %class.btPolyhedralConvexAabbCachingShape, ptr %this1, i32 0, i32 3
  store i8 0, ptr %m_isLocalAabbValid, align 8
  ret void

lpad:                                             ; preds = %invoke.cont, %entry
  %0 = landingpad { ptr, i32 }
          cleanup
  %1 = extractvalue { ptr, i32 } %0, 0
  store ptr %1, ptr %exn.slot, align 8
  %2 = extractvalue { ptr, i32 } %0, 1
  store i32 %2, ptr %ehselector.slot, align 4
  call void @_ZN23btPolyhedralConvexShapeD2Ev(ptr noundef nonnull align 8 dereferenceable(80) %this1) #8
  br label %eh.resume

eh.resume:                                        ; preds = %lpad
  %exn = load ptr, ptr %exn.slot, align 8
  %sel = load i32, ptr %ehselector.slot, align 4
  %lpad.val = insertvalue { ptr, i32 } poison, ptr %exn, 0
  %lpad.val8 = insertvalue { ptr, i32 } %lpad.val, i32 %sel, 1
  resume { ptr, i32 } %lpad.val8
}