; Function Attrs: mustprogress uwtable
define dso_local void @_ZN34btPolyhedralConvexAabbCachingShapeC2Ev(ptr noundef nonnull align 8 dereferenceable(113) %this) unnamed_addr #0 align 2 personality ptr @__gxx_personality_v0 {
entry:
  tail call void @_ZN21btConvexInternalShapeC2Ev(ptr noundef nonnull align 8 dereferenceable(72) %this)
  %m_polyhedron.i = getelementptr inbounds i8, ptr %this, i64 72
  store ptr null, ptr %m_polyhedron.i, align 8
  store ptr getelementptr inbounds ({ [34 x ptr] }, ptr @_ZTV34btPolyhedralConvexAabbCachingShape, i64 0, i32 0, i64 2), ptr %this, align 8
  %m_localAabbMin = getelementptr inbounds i8, ptr %this, i64 80
  store <4 x float> <float 1.000000e+00, float 1.000000e+00, float 1.000000e+00, float 0.000000e+00>, ptr %m_localAabbMin, align 8
  %m_localAabbMax = getelementptr inbounds i8, ptr %this, i64 96
  store <4 x float> <float -1.000000e+00, float -1.000000e+00, float -1.000000e+00, float 0.000000e+00>, ptr %m_localAabbMax, align 8
  %m_isLocalAabbValid = getelementptr inbounds i8, ptr %this, i64 112
  store i8 0, ptr %m_isLocalAabbValid, align 8
  ret void
}